target datalayout = "e-m:e-p270:32:32-p271:32:32-p272:64:64-i64:64-i128:128-f80:128-n8:16:32:64-S128"
target triple = "x86_64-pc-linux-gnu"

%"struct.duckdb_yyjson::yyjson_alc" = type { ptr, ptr, ptr, ptr }
%"struct.duckdb_yyjson::dyn_ctx" = type { %"struct.duckdb_yyjson::dyn_chunk", %"struct.duckdb_yyjson::dyn_chunk" }
%"struct.duckdb_yyjson::dyn_chunk" = type { i64, ptr }

; Function Attrs: mustprogress uwtable
define void @_ZN13duckdb_yyjson19yyjson_alc_dyn_freeEPNS_10yyjson_alcE(ptr noundef %0) #1 {
  %2 = alloca ptr, align 8
  %3 = alloca %"struct.duckdb_yyjson::yyjson_alc", align 8
  %4 = alloca ptr, align 8
  %5 = alloca ptr, align 8
  %6 = alloca ptr, align 8
  %7 = alloca i32, align 4
  store ptr %0, ptr %2, align 8, !tbaa !3
  call void @llvm.lifetime.start.p0(i64 32, ptr %3) #15
  call void @llvm.memcpy.p0.p0.i64(ptr align 8 %3, ptr align 8 @__const._ZN13duckdb_yyjson19yyjson_alc_dyn_freeEPNS_10yyjson_alcE.def, i64 32, i1 false)
  call void @llvm.lifetime.start.p0(i64 8, ptr %4) #15
  %8 = load ptr, ptr %2, align 8, !tbaa !3
  %9 = getelementptr inbounds %"struct.duckdb_yyjson::yyjson_alc", ptr %8, i64 1
  store ptr %9, ptr %4, align 8, !tbaa !8
  call void @llvm.lifetime.start.p0(i64 8, ptr %5) #15
  call void @llvm.lifetime.start.p0(i64 8, ptr %6) #15
  %10 = load ptr, ptr %2, align 8, !tbaa !3
  %11 = icmp ne ptr %10, null
  %12 = xor i1 %11, true
  %13 = xor i1 %12, true
  %14 = xor i1 %13, true
  %15 = zext i1 %14 to i64
  %16 = call i64 @llvm.expect.i64(i64 %15, i64 0)
  %17 = icmp ne i64 %16, 0
  br i1 %17, label %18, label %19

18:                                               ; preds = %1
  store i32 1, ptr %7, align 4
  br label %63

19:                                               ; preds = %1
  %20 = load ptr, ptr %4, align 8, !tbaa !8
  %21 = getelementptr inbounds nuw %"struct.duckdb_yyjson::dyn_ctx", ptr %20, i32 0, i32 0
  %22 = getelementptr inbounds nuw %"struct.duckdb_yyjson::dyn_chunk", ptr %21, i32 0, i32 1
  %23 = load ptr, ptr %22, align 8, !tbaa !31
  store ptr %23, ptr %5, align 8, !tbaa !35
  br label %24

24:                                               ; preds = %36, %19
  %25 = load ptr, ptr %5, align 8, !tbaa !35
  %26 = icmp ne ptr %25, null
  br i1 %26, label %27, label %38

27:                                               ; preds = %24
  %28 = load ptr, ptr %5, align 8, !tbaa !35
  %29 = getelementptr inbounds nuw %"struct.duckdb_yyjson::dyn_chunk", ptr %28, i32 0, i32 1
  %30 = load ptr, ptr %29, align 8, !tbaa !37
  store ptr %30, ptr %6, align 8, !tbaa !35
  %31 = getelementptr inbounds nuw %"struct.duckdb_yyjson::yyjson_alc", ptr %3, i32 0, i32 2
  %32 = load ptr, ptr %31, align 8, !tbaa !25
  %33 = getelementptr inbounds nuw %"struct.duckdb_yyjson::yyjson_alc", ptr %3, i32 0, i32 3
  %34 = load ptr, ptr %33, align 8, !tbaa !26
  %35 = load ptr, ptr %5, align 8, !tbaa !35
  call void %32(ptr noundef %34, ptr noundef %35)
  br label %36

36:                                               ; preds = %27
  %37 = load ptr, ptr %6, align 8, !tbaa !35
  store ptr %37, ptr %5, align 8, !tbaa !35
  br label %24, !llvm.loop !40

38:                                               ; preds = %24
  %39 = load ptr, ptr %4, align 8, !tbaa !8
  %40 = getelementptr inbounds nuw %"struct.duckdb_yyjson::dyn_ctx", ptr %39, i32 0, i32 1
  %41 = getelementptr inbounds nuw %"struct.duckdb_yyjson::dyn_chunk", ptr %40, i32 0, i32 1
  %42 = load ptr, ptr %41, align 8, !tbaa !41
  store ptr %42, ptr %5, align 8, !tbaa !35
  br label %43

43:                                               ; preds = %55, %38
  %44 = load ptr, ptr %5, align 8, !tbaa !35
  %45 = icmp ne ptr %44, null
  br i1 %45, label %46, label %57

46:                                               ; preds = %43
  %47 = load ptr, ptr %5, align 8, !tbaa !35
  %48 = getelementptr inbounds nuw %"struct.duckdb_yyjson::dyn_chunk", ptr %47, i32 0, i32 1
  %49 = load ptr, ptr %48, align 8, !tbaa !37
  store ptr %49, ptr %6, align 8, !tbaa !35
  %50 = getelementptr inbounds nuw %"struct.duckdb_yyjson::yyjson_alc", ptr %3, i32 0, i32 2
  %51 = load ptr, ptr %50, align 8, !tbaa !25
  %52 = getelementptr inbounds nuw %"struct.duckdb_yyjson::yyjson_alc", ptr %3, i32 0, i32 3
  %53 = load ptr, ptr %52, align 8, !tbaa !26
  %54 = load ptr, ptr %5, align 8, !tbaa !35
  call void %51(ptr noundef %53, ptr noundef %54)
  br label %55

55:                                               ; preds = %46
  %56 = load ptr, ptr %6, align 8, !tbaa !35
  store ptr %56, ptr %5, align 8, !tbaa !35
  br label %43, !llvm.loop !42

57:                                               ; preds = %43
  %58 = getelementptr inbounds nuw %"struct.duckdb_yyjson::yyjson_alc", ptr %3, i32 0, i32 2
  %59 = load ptr, ptr %58, align 8, !tbaa !25
  %60 = getelementptr inbounds nuw %"struct.duckdb_yyjson::yyjson_alc", ptr %3, i32 0, i32 3
  %61 = load ptr, ptr %60, align 8, !tbaa !26
  %62 = load ptr, ptr %2, align 8, !tbaa !3
  call void %59(ptr noundef %61, ptr noundef %62)
  store i32 0, ptr %7, align 4
  br label %63

63:                                               ; preds = %57, %18
  call void @llvm.lifetime.end.p0(i64 8, ptr %6) #15
  call void @llvm.lifetime.end.p0(i64 8, ptr %5) #15
  call void @llvm.lifetime.end.p0(i64 8, ptr %4) #15
  call void @llvm.lifetime.end.p0(i64 32, ptr %3) #15
  %64 = load i32, ptr %7, align 4
  switch i32 %64, label %66 [
    i32 0, label %65
    i32 1, label %65
  ]

65:                                               ; preds = %63, %63
  ret void

66:                                               ; preds = %63
  unreachable
}